; Function Attrs: norecurse nounwind uwtable
define internal void @_ZN5faiss27ReservoirBlockResultHandlerINS_4CMaxIflEEE11add_resultsEmmPKf.omp_outlined(ptr noalias nocapture noundef readonly %0, ptr noalias nocapture readnone %1, ptr nocapture noundef readonly %2, ptr nocapture noundef nonnull readonly align 8 dereferenceable(8) %3, ptr nocapture noundef nonnull readonly align 8 dereferenceable(8) %4, ptr nocapture noundef nonnull readonly align 8 dereferenceable(8) %5) #1 personality ptr @__gxx_personality_v0 {
  %7 = alloca i64, align 8
  %8 = alloca i64, align 8
  %9 = alloca i64, align 8
  %10 = alloca i32, align 4
  %11 = getelementptr inbounds i8, ptr %2, i64 16
  %12 = load i64, ptr %11, align 8
  %13 = getelementptr inbounds i8, ptr %2, i64 24
  %14 = load i64, ptr %13, align 8
  %15 = icmp ult i64 %12, %14
  br i1 %15, label %16, label %86

16:                                               ; preds = %6
  %17 = xor i64 %12, -1
  %18 = add i64 %14, %17
  store i64 0, ptr %7, align 8
  store i64 %18, ptr %8, align 8
  store i64 1, ptr %9, align 8
  store i32 0, ptr %10, align 4
  %19 = load i32, ptr %0, align 4
  call void @__kmpc_for_static_init_8u(ptr nonnull @1, i32 %19, i32 34, ptr nonnull %10, ptr nonnull %7, ptr nonnull %8, ptr nonnull %9, i64 1, i64 1)
  %20 = load i64, ptr %8, align 8
  %21 = call i64 @llvm.umin.i64(i64 %20, i64 %18)
  store i64 %21, ptr %8, align 8
  %22 = load i64, ptr %7, align 8
  %23 = add i64 %21, 1
  %24 = icmp ult i64 %22, %23
  br i1 %24, label %.lr.ph31, label %._crit_edge32

.lr.ph31:                                         ; preds = %16
  %25 = getelementptr inbounds i8, ptr %2, i64 112
  %26 = load i64, ptr %5, align 8
  %27 = load i64, ptr %4, align 8
  %28 = icmp ult i64 %26, %27
  br i1 %28, label %.lr.ph31.split, label %._crit_edge32

.lr.ph31.split:                                   ; preds = %.lr.ph31, %._crit_edge
  %29 = phi i64 [ %80, %._crit_edge ], [ %21, %.lr.ph31 ]
  %30 = phi i64 [ %81, %._crit_edge ], [ %27, %.lr.ph31 ]
  %31 = phi i64 [ %82, %._crit_edge ], [ %27, %.lr.ph31 ]
  %.029 = phi i64 [ %83, %._crit_edge ], [ %22, %.lr.ph31 ]
  %32 = add i64 %.029, %12
  %33 = load i64, ptr %11, align 8
  %34 = sub i64 %32, %33
  %35 = load ptr, ptr %3, align 8
  %36 = load i64, ptr %5, align 8
  %37 = sub i64 %31, %36
  %38 = mul i64 %37, %34
  %39 = getelementptr inbounds float, ptr %35, i64 %38
  %40 = sub i64 0, %36
  %41 = getelementptr inbounds float, ptr %39, i64 %40
  %42 = icmp ult i64 %36, %31
  br i1 %42, label %.lr.ph, label %._crit_edge

.lr.ph:                                           ; preds = %.lr.ph31.split
  %43 = load ptr, ptr %25, align 8
  %44 = getelementptr inbounds %"struct.faiss::ReservoirTopN.26", ptr %43, i64 %34
  %45 = getelementptr inbounds i8, ptr %44, i64 8
  %46 = getelementptr inbounds i8, ptr %44, i64 32
  %47 = getelementptr inbounds i8, ptr %44, i64 48
  %48 = getelementptr inbounds i8, ptr %44, i64 16
  %49 = getelementptr inbounds i8, ptr %44, i64 24
  %50 = getelementptr inbounds i8, ptr %44, i64 40
  br label %51

51:                                               ; preds = %.lr.ph, %_ZN5faiss13ReservoirTopNINS_4CMaxIflEEE10add_resultEfl.exit
  %52 = phi i64 [ %30, %.lr.ph ], [ %77, %_ZN5faiss13ReservoirTopNINS_4CMaxIflEEE10add_resultEfl.exit ]
  %.02628 = phi i64 [ %36, %.lr.ph ], [ %78, %_ZN5faiss13ReservoirTopNINS_4CMaxIflEEE10add_resultEfl.exit ]
  %53 = getelementptr inbounds float, ptr %41, i64 %.02628
  %54 = load float, ptr %53, align 4
  %55 = load float, ptr %45, align 8
  %56 = fcmp ogt float %55, %54
  br i1 %56, label %57, label %_ZN5faiss13ReservoirTopNINS_4CMaxIflEEE10add_resultEfl.exit

57:                                               ; preds = %51
  %58 = load i64, ptr %46, align 8
  %59 = load i64, ptr %47, align 8
  %60 = icmp eq i64 %58, %59
  br i1 %60, label %61, label %68

61:                                               ; preds = %57
  %62 = load ptr, ptr %48, align 8
  %63 = load ptr, ptr %49, align 8
  %64 = load i64, ptr %50, align 8
  %65 = add i64 %64, %58
  %66 = lshr i64 %65, 1
  %67 = invoke noundef float @_ZN5faiss15partition_fuzzyINS_4CMaxIflEEEENT_1TEPS4_PNS3_2TIEmmmPm(ptr noundef %62, ptr noundef %63, i64 noundef %58, i64 noundef %64, i64 noundef %66, ptr noundef nonnull %46)
          to label %.noexc unwind label %87

.noexc:                                           ; preds = %61
  store float %67, ptr %45, align 8
  %.pre.i = load i64, ptr %46, align 8
  br label %68

68:                                               ; preds = %.noexc, %57
  %69 = phi i64 [ %.pre.i, %.noexc ], [ %58, %57 ]
  %70 = load ptr, ptr %48, align 8
  %71 = getelementptr inbounds float, ptr %70, i64 %69
  store float %54, ptr %71, align 4
  %72 = load ptr, ptr %49, align 8
  %73 = load i64, ptr %46, align 8
  %74 = getelementptr inbounds i64, ptr %72, i64 %73
  store i64 %.02628, ptr %74, align 8
  %75 = load i64, ptr %46, align 8
  %76 = add i64 %75, 1
  store i64 %76, ptr %46, align 8
  %.pre = load i64, ptr %4, align 8
  br label %_ZN5faiss13ReservoirTopNINS_4CMaxIflEEE10add_resultEfl.exit

_ZN5faiss13ReservoirTopNINS_4CMaxIflEEE10add_resultEfl.exit: ; preds = %68, %51
  %77 = phi i64 [ %.pre, %68 ], [ %52, %51 ]
  %78 = add nuw i64 %.02628, 1
  %79 = icmp ult i64 %78, %77
  br i1 %79, label %51, label %._crit_edge.loopexit, !llvm.loop !111

._crit_edge.loopexit:                             ; preds = %_ZN5faiss13ReservoirTopNINS_4CMaxIflEEE10add_resultEfl.exit
  %.pre34 = load i64, ptr %8, align 8
  br label %._crit_edge

._crit_edge:                                      ; preds = %._crit_edge.loopexit, %.lr.ph31.split
  %80 = phi i64 [ %.pre34, %._crit_edge.loopexit ], [ %29, %.lr.ph31.split ]
  %81 = phi i64 [ %77, %._crit_edge.loopexit ], [ %30, %.lr.ph31.split ]
  %82 = phi i64 [ %77, %._crit_edge.loopexit ], [ %31, %.lr.ph31.split ]
  %83 = add nuw i64 %.029, 1
  %84 = add i64 %80, 1
  %85 = icmp ult i64 %83, %84
  br i1 %85, label %.lr.ph31.split, label %._crit_edge32, !llvm.loop !112

._crit_edge32:                                    ; preds = %._crit_edge, %.lr.ph31, %16
  call void @__kmpc_for_static_fini(ptr nonnull @1, i32 %19)
  br label %86

86:                                               ; preds = %._crit_edge32, %6
  ret void

87:                                               ; preds = %61
  %88 = landingpad { ptr, i32 }
          catch ptr null
  %89 = extractvalue { ptr, i32 } %88, 0
  call void @__clang_call_terminate(ptr %89) #22
  unreachable
}